---------------------------------------------
PIC ASSEMBLER LISTING
Line    Address Opcode  Instruction
---------------------------------------------
0001    0000            suma	equ 0x21
0002    0000            d1	equ 0x22
0003    0000            d2	equ 0x23
0004    0000            
0005    0000            INICIO
0006    0000            	org 0x00
0007    0000            	
0008    0000    1683    	BSF	STATUS, RP0
0009    0001    1303    	BCF	STATUS, RP1
0010    0002            
0011    0002    30FF    	movlw	b'11111111'
0012    0003    0086    	movwf	TRISB
0013    0004            
0014    0004    30F0    	movlw	b'11110000'
0015    0005    0087    	movwf	TRISC
0016    0006            
0017    0006    1283    	BCF	STATUS, RP0
0018    0007    1303    	BCF	STATUS, RP1
0019    0008            START
0020    0008            	
0021    0008    2040    	CALL DELAY
0022    0009    2040    	CALL DELAY
0023    000A    2040    	CALL DELAY
0024    000B    2040    	CALL DELAY
0025    000C    2040    	CALL DELAY
0026    000D    2040    	CALL DELAY
0027    000E            
0028    000E            
0029    000E    1806    	BTFSC	PORTB, 0
0030    000F    2021    	CALL BTN0
0031    0010    1886    	BTFSC	PORTB, 1
0032    0011    2025    	CALL BTN1
0033    0012    1906    	BTFSC	PORTB, 2
0034    0013    2029    	CALL BTN2
0035    0014    1986    	BTFSC	PORTB, 3
0036    0015    202D    	CALL BTN3
0037    0016    1A06    	BTFSC	PORTB, 4
0038    0017    2031    	CALL BTN4
0039    0018    1A86    	BTFSC	PORTB, 5
0040    0019    2035    	CALL BTN5
0041    001A    1B06    	BTFSC	PORTB, 6
0042    001B    2039    	CALL BTN6
0043    001C    1B86    	BTFSC	PORTB, 7
0044    001D    203D    	CALL BTN7
0045    001E            	
0046    001E            	
0047    001E    0821    	MOVF	SUMA, W
0048    001F    0087    	MOVWF	PORTC
0049    0020    2808    	GOTO START
0050    0021            
0051    0021            END
0052    0021            
0053    0021            BTN0
0054    0021    0821    	MOVF	suma, w
0055    0022    3E00    	ADDLW	0
0056    0023    00A1    	MOVWF	suma
0057    0024    0008    	RETURN
0058    0025            BTN1
0059    0025    0821    	MOVF	suma, w
0060    0026    3E01    	ADDLW	1
0061    0027    00A1    	MOVWF	suma
0062    0028    0008    	RETURN
0063    0029            BTN2
0064    0029    0821    	MOVF	suma, w
0065    002A    3E02    	ADDLW	2
0066    002B    00A1    	MOVWF	suma
0067    002C    0008    	RETURN
0068    002D            BTN3
0069    002D    0821    	MOVF	suma, w
0070    002E    3E03    	ADDLW	3
0071    002F    00A1    	MOVWF	suma
0072    0030    0008    	RETURN
0073    0031            BTN4
0074    0031    0821    	MOVF	suma, w
0075    0032    3E04    	ADDLW	4
0076    0033    00A1    	MOVWF	suma
0077    0034    0008    	RETURN
0078    0035            BTN5
0079    0035    0821    	MOVF	suma, w
0080    0036    3E05    	ADDLW	5
0081    0037    00A1    	MOVWF	suma
0082    0038    0008    	RETURN
0083    0039            BTN6
0084    0039    0821    	MOVF	suma, w
0085    003A    3E06    	ADDLW	6
0086    003B    00A1    	MOVWF	suma
0087    003C    0008    	RETURN
0088    003D            BTN7
0089    003D    3000    	MOVLW	0
0090    003E    00A1    	MOVWF	suma
0091    003F    0008    	RETURN
0092    0040            
0093    0040            
0094    0040            Delay
0095    0040            			;16993 cycles
0096    0040    3046    	movlw	0x46
0097    0041    00A2    	movwf	d1
0098    0042    300E    	movlw	0x0E
0099    0043    00A3    	movwf	d2
0100    0044            Delay_0
0101    0044    0BA2    	decfsz	d1, f
0102    0045    2847    	goto	$+2
0103    0046    0BA3    	decfsz	d2, f
0104    0047    2844    	goto	Delay_0
0105    0048            
0106    0048            			;3 cycles
0107    0048    2849    	goto	$+1
0108    0049    0000    	nop
0109    004A            
0110    004A            			;4 cycles (including call)
0111    004A    0008    	return
0112    004B            
---------------------------------------------
Number of errors = 0
